(dp0
I1
(dp1
S'posterid'
p2
S''
p3
sS'state'
p4
g3
ssI2
(dp5
g2
V42351610
p6
sg4
VD
p7
ssI3
(dp8
g2
V49207759
p9
sg4
VD
p10
ssI4
(dp11
g2
V49996300
p12
sg4
VD
p13
ssI5
(dp14
g2
V54120089
p15
sg4
VD
p16
ss.